ARM GAS  /tmp/ccZSEmEr.s 			page 1


   1              		.cpu cortex-m4
   2              		.eabi_attribute 27, 1
   3              		.eabi_attribute 28, 1
   4              		.eabi_attribute 20, 1
   5              		.eabi_attribute 21, 1
   6              		.eabi_attribute 23, 3
   7              		.eabi_attribute 24, 1
   8              		.eabi_attribute 25, 1
   9              		.eabi_attribute 26, 1
  10              		.eabi_attribute 30, 2
  11              		.eabi_attribute 34, 1
  12              		.eabi_attribute 18, 4
  13              		.file	"main.c"
  14              		.text
  15              	.Ltext0:
  16              		.cfi_sections	.debug_frame
  17              		.section	.text.startup.main,"ax",%progbits
  18              		.align	1
  19              		.p2align 4,,15
  20              		.global	main
  21              		.syntax unified
  22              		.thumb
  23              		.thumb_func
  24              		.fpu fpv4-sp-d16
  25              		.type	main, %function
  26              	main:
  27              	.LFB259:
  28              		.file 1 "main.c"
  29              		.loc 1 27 0
  30              		.cfi_startproc
  31              		@ args = 0, pretend = 0, frame = 8
  32              		@ frame_needed = 0, uses_anonymous_args = 0
  33 0000 2DE9F04F 		push	{r4, r5, r6, r7, r8, r9, r10, fp, lr}
  34              		.cfi_def_cfa_offset 36
  35              		.cfi_offset 4, -36
  36              		.cfi_offset 5, -32
  37              		.cfi_offset 6, -28
  38              		.cfi_offset 7, -24
  39              		.cfi_offset 8, -20
  40              		.cfi_offset 9, -16
  41              		.cfi_offset 10, -12
  42              		.cfi_offset 11, -8
  43              		.cfi_offset 14, -4
  44 0004 D64B     		ldr	r3, .L33
  45              		.loc 1 83 0
  46 0006 D74E     		ldr	r6, .L33+4
  47              		.loc 1 27 0
  48 0008 1B68     		ldr	r3, [r3]
  49 000a 83B0     		sub	sp, sp, #12
  50              		.cfi_def_cfa_offset 48
  51              		.loc 1 27 0
  52 000c 0193     		str	r3, [sp, #4]
  53              		.loc 1 28 0
  54 000e FFF7FEFF 		bl	halInit
  55              	.LVL0:
  56              		.loc 1 29 0
  57 0012 FFF7FEFF 		bl	chSysInit
ARM GAS  /tmp/ccZSEmEr.s 			page 2


  58              	.LVL1:
  59              		.loc 1 30 0
  60 0016 FFF7FEFF 		bl	mpu_init
  61              	.LVL2:
  62              		.loc 1 33 0
  63 001a D34A     		ldr	r2, .L33+8
  64 001c D349     		ldr	r1, .L33+12
  65 001e D448     		ldr	r0, .L33+16
  66 0020 FFF7FEFF 		bl	messagebus_init
  67              	.LVL3:
  68              		.loc 1 34 0
  69 0024 0020     		movs	r0, #0
  70 0026 FFF7FEFF 		bl	proximity_start
  71              	.LVL4:
  72              		.loc 1 35 0
  73 002a FFF7FEFF 		bl	calibrate_ir
  74              	.LVL5:
  75              		.loc 1 38 0
  76 002e FFF7FEFF 		bl	clear_leds
  77              	.LVL6:
  78              		.loc 1 39 0
  79 0032 FFF7FEFF 		bl	spi_comm_start
  80              	.LVL7:
  81              		.loc 1 43 0
  82 0036 FFF7FEFF 		bl	motors_init
  83              	.LVL8:
  84              		.loc 1 46 0
  85 003a FFF7FEFF 		bl	serial_start
  86              	.LVL9:
  87              	.L2:
  88              		.loc 1 63 0
  89 003e FFF7FEFF 		bl	get_selector
  90              	.LVL10:
  91 0042 0A28     		cmp	r0, #10
  92 0044 21DD     		ble	.L13
  93              	.L28:
  94              		.loc 1 158 0
  95 0046 0020     		movs	r0, #0
  96 0048 FFF7FEFF 		bl	left_motor_set_speed
  97              	.LVL11:
  98              		.loc 1 159 0
  99 004c 0020     		movs	r0, #0
 100 004e FFF7FEFF 		bl	right_motor_set_speed
 101              	.LVL12:
 102              		.loc 1 160 0
 103 0052 0121     		movs	r1, #1
 104 0054 0020     		movs	r0, #0
 105 0056 FFF7FEFF 		bl	set_led
 106              	.LVL13:
 107              		.loc 1 161 0
 108 005a 0121     		movs	r1, #1
 109 005c 0846     		mov	r0, r1
 110 005e FFF7FEFF 		bl	set_led
 111              	.LVL14:
 112              		.loc 1 162 0
 113 0062 0121     		movs	r1, #1
 114 0064 0320     		movs	r0, #3
ARM GAS  /tmp/ccZSEmEr.s 			page 3


 115 0066 FFF7FEFF 		bl	set_led
 116              	.LVL15:
 117              		.loc 1 163 0
 118 006a 0023     		movs	r3, #0
 119 006c 1946     		mov	r1, r3
 120 006e 1846     		mov	r0, r3
 121 0070 0122     		movs	r2, #1
 122 0072 FFF7FEFF 		bl	set_rgb_led
 123              	.LVL16:
 124              		.loc 1 164 0
 125 0076 0023     		movs	r3, #0
 126 0078 1946     		mov	r1, r3
 127 007a 0122     		movs	r2, #1
 128 007c 0320     		movs	r0, #3
 129 007e FFF7FEFF 		bl	set_rgb_led
 130              	.LVL17:
 131              		.loc 1 63 0
 132 0082 FFF7FEFF 		bl	get_selector
 133              	.LVL18:
 134 0086 0A28     		cmp	r0, #10
 135 0088 DDDC     		bgt	.L28
 136              	.L13:
 137              		.loc 1 64 0
 138 008a FFF7FEFF 		bl	get_selector
 139              	.LVL19:
 140 008e 0446     		mov	r4, r0
 141              	.LVL20:
 142              		.loc 1 65 0
 143 0090 0020     		movs	r0, #0
 144              	.LVL21:
 145 0092 FFF7FEFF 		bl	get_calibrated_prox
 146              	.LVL22:
 147 0096 0546     		mov	r5, r0
 148              	.LVL23:
 149              		.loc 1 66 0
 150 0098 0720     		movs	r0, #7
 151              	.LVL24:
 152 009a FFF7FEFF 		bl	get_calibrated_prox
 153              	.LVL25:
 154 009e 0746     		mov	r7, r0
 155              	.LVL26:
 156              		.loc 1 67 0
 157 00a0 0120     		movs	r0, #1
 158              	.LVL27:
 159 00a2 FFF7FEFF 		bl	get_calibrated_prox
 160              	.LVL28:
 161 00a6 8246     		mov	r10, r0
 162              	.LVL29:
 163              		.loc 1 68 0
 164 00a8 0620     		movs	r0, #6
 165              	.LVL30:
 166 00aa FFF7FEFF 		bl	get_calibrated_prox
 167              	.LVL31:
 168 00ae 8146     		mov	r9, r0
 169              	.LVL32:
 170              		.loc 1 69 0
 171 00b0 0220     		movs	r0, #2
ARM GAS  /tmp/ccZSEmEr.s 			page 4


 172              	.LVL33:
 173 00b2 FFF7FEFF 		bl	get_calibrated_prox
 174              	.LVL34:
 175 00b6 8046     		mov	r8, r0
 176              	.LVL35:
 177              		.loc 1 70 0
 178 00b8 0520     		movs	r0, #5
 179              	.LVL36:
 180 00ba FFF7FEFF 		bl	get_calibrated_prox
 181              	.LVL37:
 182              		.loc 1 72 0
 183 00be B5F5C87F 		cmp	r5, #400
 184              		.loc 1 70 0
 185 00c2 8346     		mov	fp, r0
 186              	.LVL38:
 187              		.loc 1 72 0
 188 00c4 3ADC     		bgt	.L3
 189              		.loc 1 72 0 is_stmt 0 discriminator 1
 190 00c6 B7F5C87F 		cmp	r7, #400
 191 00ca 61DD     		ble	.L4
 192              		.loc 1 74 0 is_stmt 1
 193 00cc 0121     		movs	r1, #1
 194 00ce 0020     		movs	r0, #0
 195              	.LVL39:
 196 00d0 FFF7FEFF 		bl	set_led
 197              	.LVL40:
 198              		.loc 1 75 0
 199 00d4 0021     		movs	r1, #0
 200 00d6 0120     		movs	r0, #1
 201 00d8 FFF7FEFF 		bl	set_led
 202              	.LVL41:
 203              		.loc 1 76 0
 204 00dc 0021     		movs	r1, #0
 205 00de 0320     		movs	r0, #3
 206 00e0 FFF7FEFF 		bl	set_led
 207              	.LVL42:
 208              		.loc 1 77 0
 209 00e4 0023     		movs	r3, #0
 210 00e6 1A46     		mov	r2, r3
 211 00e8 1946     		mov	r1, r3
 212 00ea 1846     		mov	r0, r3
 213 00ec FFF7FEFF 		bl	set_rgb_led
 214              	.LVL43:
 215              		.loc 1 78 0
 216 00f0 0023     		movs	r3, #0
 217 00f2 1A46     		mov	r2, r3
 218 00f4 1946     		mov	r1, r3
 219 00f6 0320     		movs	r0, #3
 220 00f8 FFF7FEFF 		bl	set_rgb_led
 221              	.LVL44:
 222 00fc 3227     		movs	r7, #50
 223              	.LVL45:
 224 00fe 6FF03105 		mvn	r5, #49
 225              	.LVL46:
 226              		.loc 1 79 0
 227 0102 B8F5FA7F 		cmp	r8, #500
 228 0106 07FB04F7 		mul	r7, r7, r4
ARM GAS  /tmp/ccZSEmEr.s 			page 5


 229 010a 05FB04F5 		mul	r5, r5, r4
 230 010e 34DC     		bgt	.L14
 231              		.loc 1 86 0
 232 0110 3846     		mov	r0, r7
 233 0112 FFF7FEFF 		bl	left_motor_set_speed
 234              	.LVL47:
 235              		.loc 1 87 0
 236 0116 2846     		mov	r0, r5
 237 0118 FFF7FEFF 		bl	right_motor_set_speed
 238              	.LVL48:
 239              		.loc 1 88 0
 240 011c 4FF47A70 		mov	r0, #1000
 241 0120 4FF47A63 		mov	r3, #4000
 242              	.L25:
 243 0124 93FBF4F4 		sdiv	r4, r3, r4
 244              	.LVL49:
 245 0128 00FB04F0 		mul	r0, r0, r4
 246 012c 00F2E730 		addw	r0, r0, #999
 247 0130 A6FB0030 		umull	r3, r0, r6, r0
 248 0134 8009     		lsrs	r0, r0, #6
 249 0136 FFF7FEFF 		bl	chThdSleep
 250              	.LVL50:
 251 013a 80E7     		b	.L2
 252              	.LVL51:
 253              	.L3:
 254              		.loc 1 74 0
 255 013c 0121     		movs	r1, #1
 256 013e 0020     		movs	r0, #0
 257              	.LVL52:
 258 0140 FFF7FEFF 		bl	set_led
 259              	.LVL53:
 260              		.loc 1 75 0
 261 0144 0021     		movs	r1, #0
 262 0146 0120     		movs	r0, #1
 263 0148 FFF7FEFF 		bl	set_led
 264              	.LVL54:
 265              		.loc 1 76 0
 266 014c 0021     		movs	r1, #0
 267 014e 0320     		movs	r0, #3
 268 0150 FFF7FEFF 		bl	set_led
 269              	.LVL55:
 270              		.loc 1 77 0
 271 0154 0023     		movs	r3, #0
 272 0156 1A46     		mov	r2, r3
 273 0158 1946     		mov	r1, r3
 274 015a 1846     		mov	r0, r3
 275 015c FFF7FEFF 		bl	set_rgb_led
 276              	.LVL56:
 277              		.loc 1 78 0
 278 0160 0023     		movs	r3, #0
 279 0162 1A46     		mov	r2, r3
 280 0164 1946     		mov	r1, r3
 281 0166 0320     		movs	r0, #3
 282 0168 FFF7FEFF 		bl	set_rgb_led
 283              	.LVL57:
 284 016c 3227     		movs	r7, #50
 285              	.LVL58:
ARM GAS  /tmp/ccZSEmEr.s 			page 6


 286 016e 6FF03105 		mvn	r5, #49
 287              	.LVL59:
 288 0172 07FB04F7 		mul	r7, r7, r4
 289 0176 05FB04F5 		mul	r5, r5, r4
 290              	.L14:
 291              		.loc 1 81 0
 292 017a 2846     		mov	r0, r5
 293 017c FFF7FEFF 		bl	left_motor_set_speed
 294              	.LVL60:
 295              		.loc 1 82 0
 296 0180 3846     		mov	r0, r7
 297 0182 FFF7FEFF 		bl	right_motor_set_speed
 298              	.LVL61:
 299              		.loc 1 83 0
 300 0186 4FF47A70 		mov	r0, #1000
 301 018a 41F65833 		movw	r3, #7000
 302 018e C9E7     		b	.L25
 303              	.LVL62:
 304              	.L4:
 305              		.loc 1 91 0
 306 0190 BAF5FA7F 		cmp	r10, #500
 307 0194 50DC     		bgt	.L7
 308              		.loc 1 91 0 is_stmt 0 discriminator 1
 309 0196 B9F5FA7F 		cmp	r9, #500
 310 019a 23DD     		ble	.L29
 311              		.loc 1 92 0 is_stmt 1
 312 019c 0021     		movs	r1, #0
 313 019e 0846     		mov	r0, r1
 314              	.LVL63:
 315 01a0 FFF7FEFF 		bl	set_led
 316              	.LVL64:
 317              		.loc 1 93 0
 318 01a4 0021     		movs	r1, #0
 319 01a6 0120     		movs	r0, #1
 320 01a8 FFF7FEFF 		bl	set_led
 321              	.LVL65:
 322              		.loc 1 94 0
 323 01ac 0021     		movs	r1, #0
 324 01ae 0320     		movs	r0, #3
 325 01b0 FFF7FEFF 		bl	set_led
 326              	.LVL66:
 327              		.loc 1 111 0
 328 01b4 0023     		movs	r3, #0
 329 01b6 1A46     		mov	r2, r3
 330 01b8 1946     		mov	r1, r3
 331 01ba 1846     		mov	r0, r3
 332 01bc FFF7FEFF 		bl	set_rgb_led
 333              	.LVL67:
 334              		.loc 1 112 0
 335 01c0 0023     		movs	r3, #0
 336 01c2 1A46     		mov	r2, r3
 337 01c4 0A21     		movs	r1, #10
 338 01c6 0320     		movs	r0, #3
 339 01c8 FFF7FEFF 		bl	set_rgb_led
 340              	.LVL68:
 341              		.loc 1 114 0
 342 01cc C4EB0410 		rsb	r0, r4, r4, lsl #4
ARM GAS  /tmp/ccZSEmEr.s 			page 7


 343 01d0 8000     		lsls	r0, r0, #2
 344 01d2 FFF7FEFF 		bl	left_motor_set_speed
 345              	.LVL69:
 346              		.loc 1 115 0
 347 01d6 6FF01300 		mvn	r0, #19
 348 01da 00FB04F0 		mul	r0, r0, r4
 349 01de FFF7FEFF 		bl	right_motor_set_speed
 350              	.LVL70:
 351 01e2 2CE7     		b	.L2
 352              	.LVL71:
 353              	.L29:
 354              		.loc 1 118 0
 355 01e4 B8F5FA7F 		cmp	r8, #500
 356 01e8 4DDC     		bgt	.L10
 357              		.loc 1 118 0 is_stmt 0 discriminator 1
 358 01ea B0F5FA7F 		cmp	r0, #500
 359 01ee 40F38C80 		ble	.L30
 360              		.loc 1 119 0 is_stmt 1
 361 01f2 0021     		movs	r1, #0
 362 01f4 0846     		mov	r0, r1
 363              	.LVL72:
 364 01f6 FFF7FEFF 		bl	set_led
 365              	.LVL73:
 366              		.loc 1 120 0
 367 01fa 0023     		movs	r3, #0
 368 01fc 1A46     		mov	r2, r3
 369 01fe 1946     		mov	r1, r3
 370 0200 1846     		mov	r0, r3
 371 0202 FFF7FEFF 		bl	set_rgb_led
 372              	.LVL74:
 373              		.loc 1 121 0
 374 0206 0023     		movs	r3, #0
 375 0208 1946     		mov	r1, r3
 376 020a 1A46     		mov	r2, r3
 377 020c 0320     		movs	r0, #3
 378 020e FFF7FEFF 		bl	set_rgb_led
 379              	.LVL75:
 380              		.loc 1 137 0
 381 0212 0021     		movs	r1, #0
 382 0214 0120     		movs	r0, #1
 383 0216 FFF7FEFF 		bl	set_led
 384              	.LVL76:
 385              		.loc 1 138 0
 386 021a 0121     		movs	r1, #1
 387 021c 0320     		movs	r0, #3
 388 021e FFF7FEFF 		bl	set_led
 389              	.LVL77:
 390              		.loc 1 140 0
 391 0222 4620     		movs	r0, #70
 392 0224 00FB04F0 		mul	r0, r0, r4
 393              		.loc 1 141 0
 394 0228 A4EB0414 		sub	r4, r4, r4, lsl #4
 395              	.LVL78:
 396              		.loc 1 140 0
 397 022c FFF7FEFF 		bl	left_motor_set_speed
 398              	.LVL79:
 399              		.loc 1 141 0
ARM GAS  /tmp/ccZSEmEr.s 			page 8


 400 0230 6000     		lsls	r0, r4, #1
 401 0232 FFF7FEFF 		bl	right_motor_set_speed
 402              	.LVL80:
 403 0236 02E7     		b	.L2
 404              	.LVL81:
 405              	.L7:
 406              		.loc 1 92 0
 407 0238 0021     		movs	r1, #0
 408 023a 0846     		mov	r0, r1
 409              	.LVL82:
 410 023c FFF7FEFF 		bl	set_led
 411              	.LVL83:
 412              		.loc 1 93 0
 413 0240 0021     		movs	r1, #0
 414 0242 0120     		movs	r0, #1
 415 0244 FFF7FEFF 		bl	set_led
 416              	.LVL84:
 417              		.loc 1 94 0
 418 0248 0021     		movs	r1, #0
 419 024a 0320     		movs	r0, #3
 420 024c FFF7FEFF 		bl	set_led
 421              	.LVL85:
 422              		.loc 1 96 0
 423 0250 B9F5FA7F 		cmp	r9, #500
 424 0254 3DDC     		bgt	.L31
 425              		.loc 1 104 0
 426 0256 0023     		movs	r3, #0
 427 0258 1A46     		mov	r2, r3
 428 025a 1846     		mov	r0, r3
 429 025c 0A21     		movs	r1, #10
 430 025e FFF7FEFF 		bl	set_rgb_led
 431              	.LVL86:
 432              		.loc 1 105 0
 433 0262 0023     		movs	r3, #0
 434 0264 1A46     		mov	r2, r3
 435 0266 1946     		mov	r1, r3
 436 0268 0320     		movs	r0, #3
 437 026a FFF7FEFF 		bl	set_rgb_led
 438              	.LVL87:
 439              		.loc 1 107 0
 440 026e 6FF01300 		mvn	r0, #19
 441 0272 00FB04F0 		mul	r0, r0, r4
 442              		.loc 1 108 0
 443 0276 C4EB0414 		rsb	r4, r4, r4, lsl #4
 444              	.LVL88:
 445              		.loc 1 107 0
 446 027a FFF7FEFF 		bl	left_motor_set_speed
 447              	.LVL89:
 448              		.loc 1 108 0
 449 027e A000     		lsls	r0, r4, #2
 450 0280 FFF7FEFF 		bl	right_motor_set_speed
 451              	.LVL90:
 452 0284 DBE6     		b	.L2
 453              	.LVL91:
 454              	.L10:
 455              		.loc 1 119 0
 456 0286 0021     		movs	r1, #0
ARM GAS  /tmp/ccZSEmEr.s 			page 9


 457 0288 0846     		mov	r0, r1
 458              	.LVL92:
 459 028a FFF7FEFF 		bl	set_led
 460              	.LVL93:
 461              		.loc 1 120 0
 462 028e 0023     		movs	r3, #0
 463 0290 1A46     		mov	r2, r3
 464 0292 1946     		mov	r1, r3
 465 0294 1846     		mov	r0, r3
 466 0296 FFF7FEFF 		bl	set_rgb_led
 467              	.LVL94:
 468              		.loc 1 121 0
 469 029a 0023     		movs	r3, #0
 470 029c 1A46     		mov	r2, r3
 471 029e 1946     		mov	r1, r3
 472 02a0 0320     		movs	r0, #3
 473 02a2 FFF7FEFF 		bl	set_rgb_led
 474              	.LVL95:
 475              		.loc 1 124 0
 476 02a6 BBF5FA7F 		cmp	fp, #500
 477 02aa 50DC     		bgt	.L32
 478              		.loc 1 131 0
 479 02ac 0121     		movs	r1, #1
 480 02ae 0846     		mov	r0, r1
 481 02b0 FFF7FEFF 		bl	set_led
 482              	.LVL96:
 483              		.loc 1 132 0
 484 02b4 0021     		movs	r1, #0
 485 02b6 0320     		movs	r0, #3
 486 02b8 FFF7FEFF 		bl	set_led
 487              	.LVL97:
 488              		.loc 1 134 0
 489 02bc A4EB0410 		sub	r0, r4, r4, lsl #4
 490 02c0 4000     		lsls	r0, r0, #1
 491 02c2 FFF7FEFF 		bl	left_motor_set_speed
 492              	.LVL98:
 493              		.loc 1 135 0
 494 02c6 4620     		movs	r0, #70
 495 02c8 00FB04F0 		mul	r0, r0, r4
 496 02cc FFF7FEFF 		bl	right_motor_set_speed
 497              	.LVL99:
 498 02d0 B5E6     		b	.L2
 499              	.L31:
 500              		.loc 1 97 0
 501 02d2 0023     		movs	r3, #0
 502 02d4 1A46     		mov	r2, r3
 503 02d6 1846     		mov	r0, r3
 504 02d8 0A21     		movs	r1, #10
 505 02da FFF7FEFF 		bl	set_rgb_led
 506              	.LVL100:
 507              		.loc 1 98 0
 508 02de 0023     		movs	r3, #0
 509 02e0 1A46     		mov	r2, r3
 510 02e2 0A21     		movs	r1, #10
 511 02e4 0320     		movs	r0, #3
 512 02e6 FFF7FEFF 		bl	set_rgb_led
 513              	.LVL101:
ARM GAS  /tmp/ccZSEmEr.s 			page 10


 514              	.L26:
 515              		.loc 1 127 0
 516 02ea 3220     		movs	r0, #50
 517 02ec 00FB04F0 		mul	r0, r0, r4
 518 02f0 FFF7FEFF 		bl	left_motor_set_speed
 519              	.LVL102:
 520              		.loc 1 128 0
 521 02f4 6FF03100 		mvn	r0, #49
 522 02f8 00FB04F0 		mul	r0, r0, r4
 523 02fc FFF7FEFF 		bl	right_motor_set_speed
 524              	.LVL103:
 525              		.loc 1 129 0
 526 0300 4FF47A70 		mov	r0, #1000
 527 0304 4FF4FA53 		mov	r3, #8000
 528 0308 0CE7     		b	.L25
 529              	.LVL104:
 530              	.L30:
 531              		.loc 1 145 0
 532 030a 0021     		movs	r1, #0
 533 030c 0846     		mov	r0, r1
 534              	.LVL105:
 535 030e FFF7FEFF 		bl	set_led
 536              	.LVL106:
 537              		.loc 1 146 0
 538 0312 0021     		movs	r1, #0
 539 0314 0120     		movs	r0, #1
 540 0316 FFF7FEFF 		bl	set_led
 541              	.LVL107:
 542              		.loc 1 147 0
 543 031a 0021     		movs	r1, #0
 544 031c 0320     		movs	r0, #3
 545 031e FFF7FEFF 		bl	set_led
 546              	.LVL108:
 547              		.loc 1 148 0
 548 0322 0023     		movs	r3, #0
 549 0324 1A46     		mov	r2, r3
 550 0326 1946     		mov	r1, r3
 551 0328 1846     		mov	r0, r3
 552 032a FFF7FEFF 		bl	set_rgb_led
 553              	.LVL109:
 554              		.loc 1 149 0
 555 032e 0023     		movs	r3, #0
 556 0330 1A46     		mov	r2, r3
 557 0332 1946     		mov	r1, r3
 558 0334 0320     		movs	r0, #3
 559 0336 FFF7FEFF 		bl	set_rgb_led
 560              	.LVL110:
 561              		.loc 1 150 0
 562 033a 6423     		movs	r3, #100
 563 033c 03FB04F4 		mul	r4, r3, r4
 564              	.LVL111:
 565 0340 2046     		mov	r0, r4
 566 0342 FFF7FEFF 		bl	left_motor_set_speed
 567              	.LVL112:
 568              		.loc 1 151 0
 569 0346 2046     		mov	r0, r4
 570 0348 FFF7FEFF 		bl	right_motor_set_speed
ARM GAS  /tmp/ccZSEmEr.s 			page 11


 571              	.LVL113:
 572 034c 77E6     		b	.L2
 573              	.LVL114:
 574              	.L32:
 575              		.loc 1 125 0
 576 034e 0121     		movs	r1, #1
 577 0350 0846     		mov	r0, r1
 578 0352 FFF7FEFF 		bl	set_led
 579              	.LVL115:
 580              		.loc 1 126 0
 581 0356 0121     		movs	r1, #1
 582 0358 0320     		movs	r0, #3
 583 035a FFF7FEFF 		bl	set_led
 584              	.LVL116:
 585 035e C4E7     		b	.L26
 586              	.L34:
 587              		.align	2
 588              	.L33:
 589 0360 00000000 		.word	__stack_chk_guard
 590 0364 D34D6210 		.word	274877907
 591 0368 00000000 		.word	.LANCHOR0
 592 036c 00000000 		.word	.LANCHOR1
 593 0370 00000000 		.word	.LANCHOR2
 594              		.cfi_endproc
 595              	.LFE259:
 596              		.size	main, .-main
 597              		.section	.text.__stack_chk_fail,"ax",%progbits
 598              		.align	1
 599              		.p2align 4,,15
 600              		.global	__stack_chk_fail
 601              		.syntax unified
 602              		.thumb
 603              		.thumb_func
 604              		.fpu fpv4-sp-d16
 605              		.type	__stack_chk_fail, %function
 606              	__stack_chk_fail:
 607              	.LFB260:
 608              		.loc 1 175 0
 609              		.cfi_startproc
 610              		@ args = 0, pretend = 0, frame = 8
 611              		@ frame_needed = 0, uses_anonymous_args = 0
 612 0000 00B5     		push	{lr}
 613              		.cfi_def_cfa_offset 4
 614              		.cfi_offset 14, -4
 615 0002 084B     		ldr	r3, .L40
 616 0004 83B0     		sub	sp, sp, #12
 617              		.cfi_def_cfa_offset 16
 618              		.loc 1 175 0
 619 0006 1A68     		ldr	r2, [r3]
 620 0008 0192     		str	r2, [sp, #4]
 621              		.loc 1 176 0
 622 000a 019A     		ldr	r2, [sp, #4]
 623 000c 1B68     		ldr	r3, [r3]
 624 000e 9A42     		cmp	r2, r3
 625 0010 05D1     		bne	.L39
 626 0012 0548     		ldr	r0, .L40+4
 627              		.loc 1 177 0
ARM GAS  /tmp/ccZSEmEr.s 			page 12


 628 0014 03B0     		add	sp, sp, #12
 629              		.cfi_remember_state
 630              		.cfi_def_cfa_offset 4
 631              		@ sp needed
 632 0016 5DF804EB 		ldr	lr, [sp], #4
 633              		.cfi_restore 14
 634              		.cfi_def_cfa_offset 0
 635              		.loc 1 176 0
 636 001a FFF7FEBF 		b	chSysHalt
 637              	.LVL117:
 638              	.L39:
 639              		.cfi_restore_state
 640 001e FFF7FEFF 		bl	__stack_chk_fail
 641              	.LVL118:
 642              	.L41:
 643 0022 00BF     		.align	2
 644              	.L40:
 645 0024 00000000 		.word	__stack_chk_guard
 646 0028 00000000 		.word	.LC0
 647              		.cfi_endproc
 648              	.LFE260:
 649              		.size	__stack_chk_fail, .-__stack_chk_fail
 650              		.global	__stack_chk_guard
 651              		.global	bus_condvar
 652              		.global	bus_lock
 653              		.global	bus
 654              		.section	.bss.bus,"aw",%nobits
 655              		.align	2
 656              		.set	.LANCHOR2,. + 0
 657              		.type	bus, %object
 658              		.size	bus, 12
 659              	bus:
 660 0000 00000000 		.space	12
 660      00000000 
 660      00000000 
 661              		.section	.data.__stack_chk_guard,"aw",%progbits
 662              		.align	2
 663              		.type	__stack_chk_guard, %object
 664              		.size	__stack_chk_guard, 4
 665              	__stack_chk_guard:
 666 0000 96E3DEE2 		.word	-488709226
 667              		.section	.data.bus_condvar,"aw",%progbits
 668              		.align	2
 669              		.set	.LANCHOR0,. + 0
 670              		.type	bus_condvar, %object
 671              		.size	bus_condvar, 8
 672              	bus_condvar:
 673 0000 00000000 		.word	bus_condvar
 674 0004 00000000 		.word	bus_condvar
 675              		.section	.data.bus_lock,"aw",%progbits
 676              		.align	2
 677              		.set	.LANCHOR1,. + 0
 678              		.type	bus_lock, %object
 679              		.size	bus_lock, 20
 680              	bus_lock:
 681 0000 00000000 		.word	bus_lock
 682 0004 00000000 		.word	bus_lock
ARM GAS  /tmp/ccZSEmEr.s 			page 13


 683 0008 00000000 		.word	0
 684 000c 00000000 		.word	0
 685 0010 00000000 		.word	0
 686              		.section	.rodata.__stack_chk_fail.str1.4,"aMS",%progbits,1
 687              		.align	2
 688              	.LC0:
 689 0000 53746163 		.ascii	"Stack smashing detected\000"
 689      6B20736D 
 689      61736869 
 689      6E672064 
 689      65746563 
 690              		.text
 691              	.Letext0:
 692              		.file 2 "/home/acse-lab/Documents/ele313/Eclipse_e-puck2/Tools/gcc-arm-none-eabi-7-2017-q4-major/a
 693              		.file 3 "/home/acse-lab/Documents/ele313/Eclipse_e-puck2/Tools/gcc-arm-none-eabi-7-2017-q4-major/l
 694              		.file 4 "/home/acse-lab/Documents/ele313/Eclipse_e-puck2/Tools/gcc-arm-none-eabi-7-2017-q4-major/a
 695              		.file 5 "/home/acse-lab/Documents/ele313/Eclipse_e-puck2/Tools/gcc-arm-none-eabi-7-2017-q4-major/a
 696              		.file 6 "/home/acse-lab/Documents/ele313/Eclipse_e-puck2/Tools/gcc-arm-none-eabi-7-2017-q4-major/a
 697              		.file 7 "/home/acse-lab/Documents/ele313/Eclipse_e-puck2/Tools/gcc-arm-none-eabi-7-2017-q4-major/a
 698              		.file 8 "/home/acse-lab/Documents/ele313/Eclipse_e-puck2/Tools/gcc-arm-none-eabi-7-2017-q4-major/a
 699              		.file 9 "/home/acse-lab/Documents/ele313/Eclipse_e-puck2/Tools/gcc-arm-none-eabi-7-2017-q4-major/a
 700              		.file 10 "../e-puck2_main-processor/ChibiOS//os/rt/ports/ARMCMx/compilers/GCC/chtypes.h"
 701              		.file 11 "../e-puck2_main-processor/ChibiOS//os/rt/include/chsystypes.h"
 702              		.file 12 "../e-puck2_main-processor/ChibiOS//os/rt/include/chschd.h"
 703              		.file 13 "../e-puck2_main-processor/ChibiOS//os/ext/CMSIS/include/core_cm4.h"
 704              		.file 14 "../e-puck2_main-processor/ChibiOS//os/ext/CMSIS/ST/system_stm32f4xx.h"
 705              		.file 15 "../e-puck2_main-processor/ChibiOS//os/ext/CMSIS/ST/stm32f407xx.h"
 706              		.file 16 "../e-puck2_main-processor/ChibiOS//os/rt/ports/ARMCMx/chcore.h"
 707              		.file 17 "../e-puck2_main-processor/ChibiOS//os/rt/ports/ARMCMx/chcore_v7m.h"
 708              		.file 18 "../e-puck2_main-processor/ChibiOS//os/rt/include/chdebug.h"
 709              		.file 19 "../e-puck2_main-processor/ChibiOS//os/rt/include/chtm.h"
 710              		.file 20 "../e-puck2_main-processor/ChibiOS//os/rt/include/chstats.h"
 711              		.file 21 "../e-puck2_main-processor/ChibiOS//os/rt/include/chsem.h"
 712              		.file 22 "../e-puck2_main-processor/ChibiOS//os/rt/include/chmtx.h"
 713              		.file 23 "../e-puck2_main-processor/ChibiOS//os/rt/include/chregistry.h"
 714              		.file 24 "../e-puck2_main-processor/ChibiOS//os/rt/include/chcond.h"
 715              		.file 25 "../e-puck2_main-processor/ChibiOS//os/rt/include/chevents.h"
 716              		.file 26 "../e-puck2_main-processor/ChibiOS//os/rt/include/chqueues.h"
 717              		.file 27 "../e-puck2_main-processor/ChibiOS//os/hal/ports/STM32/STM32F4xx/stm32_dma.h"
 718              		.file 28 "../e-puck2_main-processor/ChibiOS//os/hal/include/hal_ioblock.h"
 719              		.file 29 "../e-puck2_main-processor/ChibiOS//os/hal/ports/STM32/LLD/GPIOv2/pal_lld.h"
 720              		.file 30 "../e-puck2_main-processor/ChibiOS//os/hal/include/adc.h"
 721              		.file 31 "../e-puck2_main-processor/ChibiOS//os/hal/ports/STM32/STM32F4xx/adc_lld.h"
 722              		.file 32 "../e-puck2_main-processor/ChibiOS//os/hal/include/can.h"
 723              		.file 33 "../e-puck2_main-processor/ChibiOS//os/hal/ports/STM32/LLD/can_lld.h"
 724              		.file 34 "../e-puck2_main-processor/ChibiOS//os/hal/include/dac.h"
 725              		.file 35 "../e-puck2_main-processor/ChibiOS//os/hal/ports/STM32/LLD/DACv1/dac_lld.h"
 726              		.file 36 "../e-puck2_main-processor/ChibiOS//os/hal/include/ext.h"
 727              		.file 37 "../e-puck2_main-processor/ChibiOS//os/hal/ports/STM32/LLD/ext_lld.h"
 728              		.file 38 "../e-puck2_main-processor/ChibiOS//os/hal/include/gpt.h"
 729              		.file 39 "../e-puck2_main-processor/ChibiOS//os/hal/ports/STM32/LLD/TIMv1/gpt_lld.h"
 730              		.file 40 "../e-puck2_main-processor/ChibiOS//os/hal/ports/STM32/LLD/TIMv1/stm32_tim.h"
 731              		.file 41 "../e-puck2_main-processor/ChibiOS//os/hal/include/i2c.h"
 732              		.file 42 "../e-puck2_main-processor/ChibiOS//os/hal/ports/STM32/LLD/I2Cv1/i2c_lld.h"
 733              		.file 43 "../e-puck2_main-processor/ChibiOS//os/hal/include/i2s.h"
 734              		.file 44 "../e-puck2_main-processor/ChibiOS//os/hal/ports/STM32/LLD/SPIv1/i2s_lld.h"
 735              		.file 45 "../e-puck2_main-processor/ChibiOS//os/hal/include/pwm.h"
ARM GAS  /tmp/ccZSEmEr.s 			page 14


 736              		.file 46 "../e-puck2_main-processor/ChibiOS//os/hal/ports/STM32/LLD/TIMv1/pwm_lld.h"
 737              		.file 47 "../e-puck2_main-processor/ChibiOS//os/hal/include/serial.h"
 738              		.file 48 "../e-puck2_main-processor/ChibiOS//os/hal/ports/STM32/LLD/USARTv1/serial_lld.h"
 739              		.file 49 "../e-puck2_main-processor/ChibiOS//os/hal/include/sdc.h"
 740              		.file 50 "../e-puck2_main-processor/ChibiOS//os/hal/ports/STM32/LLD/sdc_lld.h"
 741              		.file 51 "../e-puck2_main-processor/ChibiOS//os/hal/include/spi.h"
 742              		.file 52 "../e-puck2_main-processor/ChibiOS//os/hal/ports/STM32/LLD/SPIv1/spi_lld.h"
 743              		.file 53 "../e-puck2_main-processor/ChibiOS//os/hal/include/usb.h"
 744              		.file 54 "../e-puck2_main-processor/ChibiOS//os/hal/ports/STM32/LLD/OTGv1/usb_lld.h"
 745              		.file 55 "../e-puck2_main-processor/ChibiOS//os/hal/ports/STM32/LLD/OTGv1/stm32_otg.h"
 746              		.file 56 "/home/acse-lab/Documents/ele313/Eclipse_e-puck2/Tools/gcc-arm-none-eabi-7-2017-q4-major/
 747              		.file 57 "../e-puck2_main-processor/src/msgbus/messagebus.h"
 748              		.file 58 "../e-puck2_main-processor/src/parameter/parameter.h"
 749              		.file 59 "./main.h"
 750              		.file 60 "../e-puck2_main-processor/src/leds.h"
 751              		.file 61 "../e-puck2_main-processor/src/motors.h"
 752              		.file 62 "../e-puck2_main-processor/ChibiOS//os/rt/include/chsys.h"
 753              		.file 63 "../e-puck2_main-processor/ChibiOS//os/hal/include/hal.h"
 754              		.file 64 "../e-puck2_main-processor/src/memory_protection.h"
 755              		.file 65 "../e-puck2_main-processor/src/sensors/proximity.h"
 756              		.file 66 "../e-puck2_main-processor/src/spi_comm.h"
 757              		.file 67 "../e-puck2_main-processor/src/serial_comm.h"
 758              		.file 68 "../e-puck2_main-processor/src/selector.h"
 759              		.file 69 "../e-puck2_main-processor/ChibiOS//os/rt/include/chthreads.h"